target datalayout = "e-m:e-p270:32:32-p271:32:32-p272:64:64-i64:64-i128:128-f80:128-n8:16:32:64-S128"
target triple = "x86_64-pc-linux-gnu"

%"class.clang::CharUnits" = type { i64 }
%"class.clang::CodeGen::swiftcall::SwiftAggLowering" = type <{ ptr, %"class.llvm::SmallVector", i8, [7 x i8] }>
%"class.llvm::SmallVector" = type { %"class.llvm::SmallVectorImpl", %"struct.llvm::SmallVectorStorage" }
%"class.llvm::SmallVectorImpl" = type { %"class.llvm::SmallVectorTemplateBase" }
%"class.llvm::SmallVectorTemplateBase" = type { %"class.llvm::SmallVectorTemplateCommon" }
%"class.llvm::SmallVectorTemplateCommon" = type { %"class.llvm::SmallVectorBase" }
%"class.llvm::SmallVectorBase" = type { ptr, i32, i32 }
%"struct.llvm::SmallVectorStorage" = type { [96 x i8] }
%"struct.clang::CodeGen::swiftcall::SwiftAggLowering::StorageEntry" = type { %"class.clang::CharUnits", %"class.clang::CharUnits", ptr }
%"class.llvm::function_ref" = type { ptr, i64 }

; Function Attrs: mustprogress nounwind uwtable
define linkonce_odr hidden void @_ZNK4llvm12function_refIFvN5clang9CharUnitsES2_PNS_4TypeEEEclES2_S2_S4_(ptr noundef nonnull align 8 dereferenceable(16) %0, i64 %1, i64 %2, ptr noundef %3) #0 comdat align 2 {
  %5 = alloca %"class.clang::CharUnits", align 8
  %6 = alloca %"class.clang::CharUnits", align 8
  %7 = alloca ptr, align 8
  %8 = alloca ptr, align 8
  %9 = alloca %"class.clang::CharUnits", align 8
  %10 = alloca %"class.clang::CharUnits", align 8
  %11 = getelementptr inbounds nuw %"class.clang::CharUnits", ptr %5, i32 0, i32 0
  store i64 %1, ptr %11, align 8
  %12 = getelementptr inbounds nuw %"class.clang::CharUnits", ptr %6, i32 0, i32 0
  store i64 %2, ptr %12, align 8
  store ptr %0, ptr %7, align 8
  store ptr %3, ptr %8, align 8
  %13 = load ptr, ptr %7, align 8
  %14 = getelementptr inbounds nuw %"class.llvm::function_ref", ptr %13, i32 0, i32 0
  %15 = load ptr, ptr %14, align 8
  %16 = getelementptr inbounds nuw %"class.llvm::function_ref", ptr %13, i32 0, i32 1
  %17 = load i64, ptr %16, align 8
  call void @llvm.memcpy.p0.p0.i64(ptr align 8 %9, ptr align 8 %5, i64 8, i1 false)
  call void @llvm.memcpy.p0.p0.i64(ptr align 8 %10, ptr align 8 %6, i64 8, i1 false)
  %18 = load ptr, ptr %8, align 8
  %19 = getelementptr inbounds nuw %"class.clang::CharUnits", ptr %9, i32 0, i32 0
  %20 = load i64, ptr %19, align 8
  %21 = getelementptr inbounds nuw %"class.clang::CharUnits", ptr %10, i32 0, i32 0
  %22 = load i64, ptr %21, align 8
  call void %15(i64 noundef %17, i64 %20, i64 %22, ptr noundef %18)
  ret void
}

; Function Attrs: mustprogress nounwind uwtable
define linkonce_odr hidden noundef ptr @_ZNK4llvm25SmallVectorTemplateCommonIN5clang7CodeGen9swiftcall16SwiftAggLowering12StorageEntryEvE3endEv(ptr noundef nonnull align 8 dereferenceable(16) %0) #0 comdat align 2 {
  %2 = alloca ptr, align 8
  store ptr %0, ptr %2, align 8
  %3 = load ptr, ptr %2, align 8
  %4 = call noundef ptr @_ZNK4llvm25SmallVectorTemplateCommonIN5clang7CodeGen9swiftcall16SwiftAggLowering12StorageEntryEvE5beginEv(ptr noundef nonnull align 8 dereferenceable(16) %3)
  %5 = call noundef i64 @_ZNK4llvm15SmallVectorBaseIjE4sizeEv(ptr noundef nonnull align 8 dereferenceable(16) %3)
  %6 = getelementptr inbounds %"struct.clang::CodeGen::swiftcall::SwiftAggLowering::StorageEntry", ptr %4, i64 %5
  ret ptr %6
}

; Function Attrs: mustprogress nounwind uwtable
define linkonce_odr hidden noundef ptr @_ZNK4llvm25SmallVectorTemplateCommonIN5clang7CodeGen9swiftcall16SwiftAggLowering12StorageEntryEvE5beginEv(ptr noundef nonnull align 8 dereferenceable(16) %0) #0 comdat align 2 {
  %2 = alloca ptr, align 8
  store ptr %0, ptr %2, align 8
  %3 = load ptr, ptr %2, align 8
  %4 = getelementptr inbounds nuw %"class.llvm::SmallVectorBase", ptr %3, i32 0, i32 0
  %5 = load ptr, ptr %4, align 8
  ret ptr %5
}

; Function Attrs: mustprogress nounwind uwtable
define dso_local void @_ZNK5clang7CodeGen9swiftcall16SwiftAggLowering19enumerateComponentsEN4llvm12function_refIFvNS_9CharUnitsES5_PNS3_4TypeEEEE(ptr noundef nonnull align 8 dereferenceable(121) %0, ptr %1, i64 %2) #0 align 2 {
  %4 = alloca %"class.llvm::function_ref", align 8
  %5 = alloca ptr, align 8
  %6 = alloca ptr, align 8
  %7 = alloca ptr, align 8
  %8 = alloca ptr, align 8
  %9 = alloca ptr, align 8
  %10 = alloca %"class.clang::CharUnits", align 8
  %11 = alloca %"class.clang::CharUnits", align 8
  %12 = getelementptr inbounds nuw { ptr, i64 }, ptr %4, i32 0, i32 0
  store ptr %1, ptr %12, align 8
  %13 = getelementptr inbounds nuw { ptr, i64 }, ptr %4, i32 0, i32 1
  store i64 %2, ptr %13, align 8
  store ptr %0, ptr %5, align 8
  %14 = load ptr, ptr %5, align 8
  %15 = getelementptr inbounds nuw %"class.clang::CodeGen::swiftcall::SwiftAggLowering", ptr %14, i32 0, i32 1
  store ptr %15, ptr %6, align 8
  %16 = load ptr, ptr %6, align 8
  %17 = call noundef ptr @_ZNK4llvm25SmallVectorTemplateCommonIN5clang7CodeGen9swiftcall16SwiftAggLowering12StorageEntryEvE5beginEv(ptr noundef nonnull align 8 dereferenceable(16) %16)
  store ptr %17, ptr %7, align 8
  %18 = load ptr, ptr %6, align 8
  %19 = call noundef ptr @_ZNK4llvm25SmallVectorTemplateCommonIN5clang7CodeGen9swiftcall16SwiftAggLowering12StorageEntryEvE3endEv(ptr noundef nonnull align 8 dereferenceable(16) %18)
  store ptr %19, ptr %8, align 8
  br label %20

20:                                               ; preds = %37, %3
  %21 = load ptr, ptr %7, align 8
  %22 = load ptr, ptr %8, align 8
  %23 = icmp ne ptr %21, %22
  br i1 %23, label %24, label %40

24:                                               ; preds = %20
  %25 = load ptr, ptr %7, align 8
  store ptr %25, ptr %9, align 8
  %26 = load ptr, ptr %9, align 8
  %27 = getelementptr inbounds nuw %"struct.clang::CodeGen::swiftcall::SwiftAggLowering::StorageEntry", ptr %26, i32 0, i32 0
  call void @llvm.memcpy.p0.p0.i64(ptr align 8 %10, ptr align 8 %27, i64 8, i1 false)
  %28 = load ptr, ptr %9, align 8
  %29 = getelementptr inbounds nuw %"struct.clang::CodeGen::swiftcall::SwiftAggLowering::StorageEntry", ptr %28, i32 0, i32 1
  call void @llvm.memcpy.p0.p0.i64(ptr align 8 %11, ptr align 8 %29, i64 8, i1 false)
  %30 = load ptr, ptr %9, align 8
  %31 = getelementptr inbounds nuw %"struct.clang::CodeGen::swiftcall::SwiftAggLowering::StorageEntry", ptr %30, i32 0, i32 2
  %32 = load ptr, ptr %31, align 8
  %33 = getelementptr inbounds nuw %"class.clang::CharUnits", ptr %10, i32 0, i32 0
  %34 = load i64, ptr %33, align 8
  %35 = getelementptr inbounds nuw %"class.clang::CharUnits", ptr %11, i32 0, i32 0
  %36 = load i64, ptr %35, align 8
  call void @_ZNK4llvm12function_refIFvN5clang9CharUnitsES2_PNS_4TypeEEEclES2_S2_S4_(ptr noundef nonnull align 8 dereferenceable(16) %4, i64 %34, i64 %36, ptr noundef %32)
  br label %37

37:                                               ; preds = %24
  %38 = load ptr, ptr %7, align 8
  %39 = getelementptr inbounds %"struct.clang::CodeGen::swiftcall::SwiftAggLowering::StorageEntry", ptr %38, i32 1
  store ptr %39, ptr %7, align 8
  br label %20

40:                                               ; preds = %20
  ret void
}