; Function Attrs: mustprogress nounwind uwtable
define dso_local void @_ZNK5clang7CodeGen9swiftcall16SwiftAggLowering19enumerateComponentsEN4llvm12function_refIFvNS_9CharUnitsES5_PNS3_4TypeEEEE(ptr noundef nonnull align 8 dereferenceable(121) %0, ptr nocapture readonly %1, i64 %2) local_unnamed_addr #0 align 2 {
  %4 = getelementptr inbounds nuw i8, ptr %0, i64 8
  %5 = load ptr, ptr %4, align 8
  %6 = tail call noundef i64 @_ZNK4llvm15SmallVectorBaseIjE4sizeEv(ptr noundef nonnull align 8 dereferenceable(16) %4) #13
  %7 = getelementptr inbounds %"struct.clang::CodeGen::swiftcall::SwiftAggLowering::StorageEntry", ptr %5, i64 %6
  %.not11 = icmp eq i64 %6, 0
  br i1 %.not11, label %._crit_edge, label %.lr.ph

.lr.ph:                                           ; preds = %3, %.lr.ph
  %.012 = phi ptr [ %11, %.lr.ph ], [ %5, %3 ]
  %.sroa.01.0.copyload = load i64, ptr %.012, align 8
  %8 = getelementptr inbounds nuw i8, ptr %.012, i64 8
  %.sroa.0.0.copyload = load i64, ptr %8, align 8
  %9 = getelementptr inbounds nuw i8, ptr %.012, i64 16
  %10 = load ptr, ptr %9, align 8
  tail call void %1(i64 noundef %2, i64 %.sroa.01.0.copyload, i64 %.sroa.0.0.copyload, ptr noundef %10) #13
  %11 = getelementptr inbounds i8, ptr %.012, i64 24
  %.not = icmp eq ptr %11, %7
  br i1 %.not, label %._crit_edge, label %.lr.ph

._crit_edge:                                      ; preds = %.lr.ph, %3
  ret void
}